; Function Attrs: nounwind uwtable
define internal void @pdo_sqlite_request_shutdown(ptr nocapture noundef readonly %0) #0 {
  %2 = getelementptr inbounds i8, ptr %0, i64 8
  %3 = load ptr, ptr %2, align 8
  %.not = icmp eq ptr %3, null
  br i1 %.not, label %5, label %4

4:                                                ; preds = %1
  tail call fastcc void @pdo_sqlite_cleanup_callbacks(ptr noundef nonnull %3)
  br label %5

5:                                                ; preds = %4, %1
  ret void
}